target datalayout = "e-m:e-p270:32:32-p271:32:32-p272:64:64-i64:64-i128:128-f80:128-n8:16:32:64-S128"
target triple = "x86_64-pc-linux-gnu"

%struct.BrotliHasherParams = type { i32, i32, i32, i32 }
%struct.HasherCommon = type { [4 x ptr], i32, i64, i64, %struct.BrotliHasherParams, i32 }
%struct.H35 = type { %struct.H3, %struct.HROLLING_FAST, %struct.HasherCommon, %struct.HasherCommon, ptr, i32, ptr }
%struct.H3 = type { ptr, ptr }
%struct.HROLLING_FAST = type { i32, ptr, i64, i32, i32, i32 }

; Function Attrs: nounwind uwtable
define internal i32 @HashByteHROLLING_FAST(i8 noundef zeroext %0) #0 {
  %2 = alloca i8, align 1
  store i8 %0, ptr %2, align 1, !tbaa !79
  %3 = load i8, ptr %2, align 1, !tbaa !79
  %4 = zext i8 %3 to i32
  %5 = add i32 %4, 1
  ret i32 %5
}

; Function Attrs: alwaysinline nounwind uwtable
define internal i64 @BrotliUnalignedRead64(ptr noundef %0) #3 {
  %2 = alloca ptr, align 8
  %3 = alloca i64, align 8
  store ptr %0, ptr %2, align 8, !tbaa !48
  call void @llvm.lifetime.start.p0(i64 8, ptr %3) #10
  %4 = load ptr, ptr %2, align 8, !tbaa !48
  call void @llvm.memcpy.p0.p0.i64(ptr align 8 %3, ptr align 1 %4, i64 8, i1 false)
  %5 = load i64, ptr %3, align 8, !tbaa !75
  call void @llvm.lifetime.end.p0(i64 8, ptr %3) #10
  ret i64 %5
}

; Function Attrs: nounwind uwtable
define internal i32 @HashRollingFunctionInitialHROLLING_FAST(i32 noundef %0, i8 noundef zeroext %1, i32 noundef %2) #0 {
  %4 = alloca i32, align 4
  %5 = alloca i8, align 1
  %6 = alloca i32, align 4
  store i32 %0, ptr %4, align 4, !tbaa !8
  store i8 %1, ptr %5, align 1, !tbaa !79
  store i32 %2, ptr %6, align 4, !tbaa !8
  %7 = load i32, ptr %6, align 4, !tbaa !8
  %8 = load i32, ptr %4, align 4, !tbaa !8
  %9 = mul i32 %7, %8
  %10 = load i8, ptr %5, align 1, !tbaa !79
  %11 = call i32 @HashByteHROLLING_FAST(i8 noundef zeroext %10)
  %12 = add i32 %9, %11
  ret i32 %12
}

; Function Attrs: nounwind uwtable
define internal i32 @HashBytesH3(ptr noundef %0) #0 {
  %2 = alloca ptr, align 8
  %3 = alloca i64, align 8
  store ptr %0, ptr %2, align 8, !tbaa !76
  call void @llvm.lifetime.start.p0(i64 8, ptr %3) #10
  %4 = load ptr, ptr %2, align 8, !tbaa !76
  %5 = call i64 @BrotliUnalignedRead64(ptr noundef %4)
  %6 = shl i64 %5, 24
  %7 = mul i64 %6, 2297779722762296275
  store i64 %7, ptr %3, align 8, !tbaa !75
  %8 = load i64, ptr %3, align 8, !tbaa !75
  %9 = lshr i64 %8, 48
  %10 = trunc i64 %9 to i32
  call void @llvm.lifetime.end.p0(i64 8, ptr %3) #10
  ret i32 %10
}

; Function Attrs: nounwind uwtable
define internal void @PrepareHROLLING_FAST(ptr noalias noundef %0, i32 noundef %1, i64 noundef %2, ptr noalias noundef %3) #0 {
  %5 = alloca ptr, align 8
  %6 = alloca i32, align 4
  %7 = alloca i64, align 8
  %8 = alloca ptr, align 8
  %9 = alloca i64, align 8
  %10 = alloca i32, align 4
  store ptr %0, ptr %5, align 8, !tbaa !328
  store i32 %1, ptr %6, align 4, !tbaa !8
  store i64 %2, ptr %7, align 8, !tbaa !75
  store ptr %3, ptr %8, align 8, !tbaa !76
  call void @llvm.lifetime.start.p0(i64 8, ptr %9) #10
  %11 = load i64, ptr %7, align 8, !tbaa !75
  %12 = icmp ult i64 %11, 32
  br i1 %12, label %13, label %14

13:                                               ; preds = %4
  store i32 1, ptr %10, align 4
  br label %38

14:                                               ; preds = %4
  %15 = load ptr, ptr %5, align 8, !tbaa !328
  %16 = getelementptr inbounds nuw %struct.HROLLING_FAST, ptr %15, i32 0, i32 0
  store i32 0, ptr %16, align 8, !tbaa !330
  store i64 0, ptr %9, align 8, !tbaa !75
  br label %17

17:                                               ; preds = %34, %14
  %18 = load i64, ptr %9, align 8, !tbaa !75
  %19 = icmp ult i64 %18, 32
  br i1 %19, label %20, label %37

20:                                               ; preds = %17
  %21 = load ptr, ptr %5, align 8, !tbaa !328
  %22 = getelementptr inbounds nuw %struct.HROLLING_FAST, ptr %21, i32 0, i32 0
  %23 = load i32, ptr %22, align 8, !tbaa !330
  %24 = load ptr, ptr %8, align 8, !tbaa !76
  %25 = load i64, ptr %9, align 8, !tbaa !75
  %26 = getelementptr inbounds nuw i8, ptr %24, i64 %25
  %27 = load i8, ptr %26, align 1, !tbaa !79
  %28 = load ptr, ptr %5, align 8, !tbaa !328
  %29 = getelementptr inbounds nuw %struct.HROLLING_FAST, ptr %28, i32 0, i32 4
  %30 = load i32, ptr %29, align 4, !tbaa !332
  %31 = call i32 @HashRollingFunctionInitialHROLLING_FAST(i32 noundef %23, i8 noundef zeroext %27, i32 noundef %30)
  %32 = load ptr, ptr %5, align 8, !tbaa !328
  %33 = getelementptr inbounds nuw %struct.HROLLING_FAST, ptr %32, i32 0, i32 0
  store i32 %31, ptr %33, align 8, !tbaa !330
  br label %34

34:                                               ; preds = %20
  %35 = load i64, ptr %9, align 8, !tbaa !75
  %36 = add i64 %35, 4
  store i64 %36, ptr %9, align 8, !tbaa !75
  br label %17, !llvm.loop !337

37:                                               ; preds = %17
  store i32 0, ptr %10, align 4
  br label %38

38:                                               ; preds = %37, %13
  call void @llvm.lifetime.end.p0(i64 8, ptr %9) #10
  %39 = load i32, ptr %10, align 4
  switch i32 %39, label %41 [
    i32 0, label %40
    i32 1, label %40
  ]

40:                                               ; preds = %38, %38
  ret void

41:                                               ; preds = %38
  unreachable
}

; Function Attrs: nounwind uwtable
define internal void @PrepareH3(ptr noalias noundef %0, i32 noundef %1, i64 noundef %2, ptr noalias noundef %3) #0 {
  %5 = alloca ptr, align 8
  %6 = alloca i32, align 4
  %7 = alloca i64, align 8
  %8 = alloca ptr, align 8
  %9 = alloca ptr, align 8
  %10 = alloca i64, align 8
  %11 = alloca i64, align 8
  %12 = alloca i32, align 4
  %13 = alloca i32, align 4
  store ptr %0, ptr %5, align 8, !tbaa !198
  store i32 %1, ptr %6, align 4, !tbaa !8
  store i64 %2, ptr %7, align 8, !tbaa !75
  store ptr %3, ptr %8, align 8, !tbaa !76
  call void @llvm.lifetime.start.p0(i64 8, ptr %9) #10
  %14 = load ptr, ptr %5, align 8, !tbaa !198
  %15 = getelementptr inbounds nuw %struct.H3, ptr %14, i32 0, i32 1
  %16 = load ptr, ptr %15, align 8, !tbaa !234
  store ptr %16, ptr %9, align 8, !tbaa !88
  call void @llvm.lifetime.start.p0(i64 8, ptr %10) #10
  store i64 2048, ptr %10, align 8, !tbaa !75
  %17 = load i32, ptr %6, align 4, !tbaa !8
  %18 = icmp ne i32 %17, 0
  br i1 %18, label %19, label %53

19:                                               ; preds = %4
  %20 = load i64, ptr %7, align 8, !tbaa !75
  %21 = load i64, ptr %10, align 8, !tbaa !75
  %22 = icmp ule i64 %20, %21
  br i1 %22, label %23, label %53

23:                                               ; preds = %19
  call void @llvm.lifetime.start.p0(i64 8, ptr %11) #10
  store i64 0, ptr %11, align 8, !tbaa !75
  br label %24

24:                                               ; preds = %49, %23
  %25 = load i64, ptr %11, align 8, !tbaa !75
  %26 = load i64, ptr %7, align 8, !tbaa !75
  %27 = icmp ult i64 %25, %26
  br i1 %27, label %28, label %52

28:                                               ; preds = %24
  call void @llvm.lifetime.start.p0(i64 4, ptr %12) #10
  %29 = load ptr, ptr %8, align 8, !tbaa !76
  %30 = load i64, ptr %11, align 8, !tbaa !75
  %31 = getelementptr inbounds nuw i8, ptr %29, i64 %30
  %32 = call i32 @HashBytesH3(ptr noundef %31)
  store i32 %32, ptr %12, align 4, !tbaa !8
  call void @llvm.lifetime.start.p0(i64 4, ptr %13) #10
  store i32 0, ptr %13, align 4, !tbaa !8
  br label %33

33:                                               ; preds = %45, %28
  %34 = load i32, ptr %13, align 4, !tbaa !8
  %35 = icmp ult i32 %34, 2
  br i1 %35, label %36, label %48

36:                                               ; preds = %33
  %37 = load ptr, ptr %9, align 8, !tbaa !88
  %38 = load i32, ptr %12, align 4, !tbaa !8
  %39 = load i32, ptr %13, align 4, !tbaa !8
  %40 = shl i32 %39, 3
  %41 = add i32 %38, %40
  %42 = and i32 %41, 65535
  %43 = zext i32 %42 to i64
  %44 = getelementptr inbounds nuw i32, ptr %37, i64 %43
  store i32 0, ptr %44, align 4, !tbaa !8
  br label %45

45:                                               ; preds = %36
  %46 = load i32, ptr %13, align 4, !tbaa !8
  %47 = add i32 %46, 1
  store i32 %47, ptr %13, align 4, !tbaa !8
  br label %33, !llvm.loop !314

48:                                               ; preds = %33
  call void @llvm.lifetime.end.p0(i64 4, ptr %13) #10
  call void @llvm.lifetime.end.p0(i64 4, ptr %12) #10
  br label %49

49:                                               ; preds = %48
  %50 = load i64, ptr %11, align 8, !tbaa !75
  %51 = add i64 %50, 1
  store i64 %51, ptr %11, align 8, !tbaa !75
  br label %24, !llvm.loop !315

52:                                               ; preds = %24
  call void @llvm.lifetime.end.p0(i64 8, ptr %11) #10
  br label %55

53:                                               ; preds = %19, %4
  %54 = load ptr, ptr %9, align 8, !tbaa !88
  call void @llvm.memset.p0.i64(ptr align 4 %54, i8 0, i64 262144, i1 false)
  br label %55

55:                                               ; preds = %53, %52
  call void @llvm.lifetime.end.p0(i64 8, ptr %10) #10
  call void @llvm.lifetime.end.p0(i64 8, ptr %9) #10
  ret void
}

; Function Attrs: nounwind uwtable
define internal void @InitializeHROLLING_FAST(ptr noundef %0, ptr noalias noundef %1, ptr noundef %2) #0 {
  %4 = alloca ptr, align 8
  %5 = alloca ptr, align 8
  %6 = alloca ptr, align 8
  %7 = alloca i64, align 8
  store ptr %0, ptr %4, align 8, !tbaa !48
  store ptr %1, ptr %5, align 8, !tbaa !328
  store ptr %2, ptr %6, align 8, !tbaa !129
  call void @llvm.lifetime.start.p0(i64 8, ptr %7) #10
  %8 = load ptr, ptr %5, align 8, !tbaa !328
  %9 = getelementptr inbounds nuw %struct.HROLLING_FAST, ptr %8, i32 0, i32 0
  store i32 0, ptr %9, align 8, !tbaa !330
  %10 = load ptr, ptr %5, align 8, !tbaa !328
  %11 = getelementptr inbounds nuw %struct.HROLLING_FAST, ptr %10, i32 0, i32 2
  store i64 0, ptr %11, align 8, !tbaa !331
  %12 = load ptr, ptr %5, align 8, !tbaa !328
  %13 = getelementptr inbounds nuw %struct.HROLLING_FAST, ptr %12, i32 0, i32 4
  store i32 69069, ptr %13, align 4, !tbaa !332
  %14 = load ptr, ptr %5, align 8, !tbaa !328
  %15 = getelementptr inbounds nuw %struct.HROLLING_FAST, ptr %14, i32 0, i32 5
  store i32 1, ptr %15, align 8, !tbaa !333
  store i64 0, ptr %7, align 8, !tbaa !75
  br label %16

16:                                               ; preds = %27, %3
  %17 = load i64, ptr %7, align 8, !tbaa !75
  %18 = icmp ult i64 %17, 32
  br i1 %18, label %19, label %30

19:                                               ; preds = %16
  %20 = load ptr, ptr %5, align 8, !tbaa !328
  %21 = getelementptr inbounds nuw %struct.HROLLING_FAST, ptr %20, i32 0, i32 4
  %22 = load i32, ptr %21, align 4, !tbaa !332
  %23 = load ptr, ptr %5, align 8, !tbaa !328
  %24 = getelementptr inbounds nuw %struct.HROLLING_FAST, ptr %23, i32 0, i32 5
  %25 = load i32, ptr %24, align 8, !tbaa !333
  %26 = mul i32 %25, %22
  store i32 %26, ptr %24, align 8, !tbaa !333
  br label %27

27:                                               ; preds = %19
  %28 = load i64, ptr %7, align 8, !tbaa !75
  %29 = add i64 %28, 4
  store i64 %29, ptr %7, align 8, !tbaa !75
  br label %16, !llvm.loop !334

30:                                               ; preds = %16
  %31 = load ptr, ptr %4, align 8, !tbaa !48
  %32 = getelementptr inbounds nuw %struct.HasherCommon, ptr %31, i32 0, i32 0
  %33 = getelementptr inbounds [4 x ptr], ptr %32, i64 0, i64 0
  %34 = load ptr, ptr %33, align 8, !tbaa !48
  %35 = load ptr, ptr %5, align 8, !tbaa !328
  %36 = getelementptr inbounds nuw %struct.HROLLING_FAST, ptr %35, i32 0, i32 1
  store ptr %34, ptr %36, align 8, !tbaa !335
  store i64 0, ptr %7, align 8, !tbaa !75
  br label %37

37:                                               ; preds = %46, %30
  %38 = load i64, ptr %7, align 8, !tbaa !75
  %39 = icmp ult i64 %38, 16777216
  br i1 %39, label %40, label %49

40:                                               ; preds = %37
  %41 = load ptr, ptr %5, align 8, !tbaa !328
  %42 = getelementptr inbounds nuw %struct.HROLLING_FAST, ptr %41, i32 0, i32 1
  %43 = load ptr, ptr %42, align 8, !tbaa !335
  %44 = load i64, ptr %7, align 8, !tbaa !75
  %45 = getelementptr inbounds nuw i32, ptr %43, i64 %44
  store i32 -1, ptr %45, align 4, !tbaa !8
  br label %46

46:                                               ; preds = %40
  %47 = load i64, ptr %7, align 8, !tbaa !75
  %48 = add i64 %47, 1
  store i64 %48, ptr %7, align 8, !tbaa !75
  br label %37, !llvm.loop !336

49:                                               ; preds = %37
  call void @llvm.lifetime.end.p0(i64 8, ptr %7) #10
  ret void
}

; Function Attrs: nounwind uwtable
define internal void @InitializeH3(ptr noundef %0, ptr noalias noundef %1, ptr noundef %2) #0 {
  %4 = alloca ptr, align 8
  %5 = alloca ptr, align 8
  %6 = alloca ptr, align 8
  store ptr %0, ptr %4, align 8, !tbaa !48
  store ptr %1, ptr %5, align 8, !tbaa !198
  store ptr %2, ptr %6, align 8, !tbaa !129
  %7 = load ptr, ptr %4, align 8, !tbaa !48
  %8 = load ptr, ptr %5, align 8, !tbaa !198
  %9 = getelementptr inbounds nuw %struct.H3, ptr %8, i32 0, i32 0
  store ptr %7, ptr %9, align 8, !tbaa !232
  %10 = load ptr, ptr %4, align 8, !tbaa !48
  %11 = getelementptr inbounds nuw %struct.HasherCommon, ptr %10, i32 0, i32 0
  %12 = getelementptr inbounds [4 x ptr], ptr %11, i64 0, i64 0
  %13 = load ptr, ptr %12, align 8, !tbaa !48
  %14 = load ptr, ptr %5, align 8, !tbaa !198
  %15 = getelementptr inbounds nuw %struct.H3, ptr %14, i32 0, i32 1
  store ptr %13, ptr %15, align 8, !tbaa !234
  ret void
}

; Function Attrs: nounwind uwtable
define internal void @PrepareH35(ptr noalias noundef %0, i32 noundef %1, i64 noundef %2, ptr noalias noundef %3) #0 {
  %5 = alloca ptr, align 8
  %6 = alloca i32, align 4
  %7 = alloca i64, align 8
  %8 = alloca ptr, align 8
  store ptr %0, ptr %5, align 8, !tbaa !218
  store i32 %1, ptr %6, align 4, !tbaa !8
  store i64 %2, ptr %7, align 8, !tbaa !75
  store ptr %3, ptr %8, align 8, !tbaa !76
  %9 = load ptr, ptr %5, align 8, !tbaa !218
  %10 = getelementptr inbounds nuw %struct.H35, ptr %9, i32 0, i32 5
  %11 = load i32, ptr %10, align 8, !tbaa !299
  %12 = icmp ne i32 %11, 0
  br i1 %12, label %13, label %86

13:                                               ; preds = %4
  %14 = load ptr, ptr %5, align 8, !tbaa !218
  %15 = getelementptr inbounds nuw %struct.H35, ptr %14, i32 0, i32 5
  store i32 0, ptr %15, align 8, !tbaa !299
  %16 = load ptr, ptr %5, align 8, !tbaa !218
  %17 = getelementptr inbounds nuw %struct.H35, ptr %16, i32 0, i32 4
  %18 = load ptr, ptr %17, align 8, !tbaa !295
  %19 = getelementptr inbounds nuw %struct.HasherCommon, ptr %18, i32 0, i32 0
  %20 = getelementptr inbounds [4 x ptr], ptr %19, i64 0, i64 0
  %21 = load ptr, ptr %20, align 8, !tbaa !48
  %22 = load ptr, ptr %5, align 8, !tbaa !218
  %23 = getelementptr inbounds nuw %struct.H35, ptr %22, i32 0, i32 2
  %24 = getelementptr inbounds nuw %struct.HasherCommon, ptr %23, i32 0, i32 0
  %25 = getelementptr inbounds [4 x ptr], ptr %24, i64 0, i64 0
  store ptr %21, ptr %25, align 8, !tbaa !48
  %26 = load ptr, ptr %5, align 8, !tbaa !218
  %27 = getelementptr inbounds nuw %struct.H35, ptr %26, i32 0, i32 4
  %28 = load ptr, ptr %27, align 8, !tbaa !295
  %29 = getelementptr inbounds nuw %struct.HasherCommon, ptr %28, i32 0, i32 0
  %30 = getelementptr inbounds [4 x ptr], ptr %29, i64 0, i64 1
  %31 = load ptr, ptr %30, align 8, !tbaa !48
  %32 = load ptr, ptr %5, align 8, !tbaa !218
  %33 = getelementptr inbounds nuw %struct.H35, ptr %32, i32 0, i32 2
  %34 = getelementptr inbounds nuw %struct.HasherCommon, ptr %33, i32 0, i32 0
  %35 = getelementptr inbounds [4 x ptr], ptr %34, i64 0, i64 1
  store ptr %31, ptr %35, align 8, !tbaa !48
  %36 = load ptr, ptr %5, align 8, !tbaa !218
  %37 = getelementptr inbounds nuw %struct.H35, ptr %36, i32 0, i32 2
  %38 = getelementptr inbounds nuw %struct.HasherCommon, ptr %37, i32 0, i32 0
  %39 = getelementptr inbounds [4 x ptr], ptr %38, i64 0, i64 2
  store ptr null, ptr %39, align 8, !tbaa !48
  %40 = load ptr, ptr %5, align 8, !tbaa !218
  %41 = getelementptr inbounds nuw %struct.H35, ptr %40, i32 0, i32 2
  %42 = getelementptr inbounds nuw %struct.HasherCommon, ptr %41, i32 0, i32 0
  %43 = getelementptr inbounds [4 x ptr], ptr %42, i64 0, i64 3
  store ptr null, ptr %43, align 8, !tbaa !48
  %44 = load ptr, ptr %5, align 8, !tbaa !218
  %45 = getelementptr inbounds nuw %struct.H35, ptr %44, i32 0, i32 4
  %46 = load ptr, ptr %45, align 8, !tbaa !295
  %47 = getelementptr inbounds nuw %struct.HasherCommon, ptr %46, i32 0, i32 0
  %48 = getelementptr inbounds [4 x ptr], ptr %47, i64 0, i64 2
  %49 = load ptr, ptr %48, align 8, !tbaa !48
  %50 = load ptr, ptr %5, align 8, !tbaa !218
  %51 = getelementptr inbounds nuw %struct.H35, ptr %50, i32 0, i32 3
  %52 = getelementptr inbounds nuw %struct.HasherCommon, ptr %51, i32 0, i32 0
  %53 = getelementptr inbounds [4 x ptr], ptr %52, i64 0, i64 0
  store ptr %49, ptr %53, align 8, !tbaa !48
  %54 = load ptr, ptr %5, align 8, !tbaa !218
  %55 = getelementptr inbounds nuw %struct.H35, ptr %54, i32 0, i32 4
  %56 = load ptr, ptr %55, align 8, !tbaa !295
  %57 = getelementptr inbounds nuw %struct.HasherCommon, ptr %56, i32 0, i32 0
  %58 = getelementptr inbounds [4 x ptr], ptr %57, i64 0, i64 3
  %59 = load ptr, ptr %58, align 8, !tbaa !48
  %60 = load ptr, ptr %5, align 8, !tbaa !218
  %61 = getelementptr inbounds nuw %struct.H35, ptr %60, i32 0, i32 3
  %62 = getelementptr inbounds nuw %struct.HasherCommon, ptr %61, i32 0, i32 0
  %63 = getelementptr inbounds [4 x ptr], ptr %62, i64 0, i64 1
  store ptr %59, ptr %63, align 8, !tbaa !48
  %64 = load ptr, ptr %5, align 8, !tbaa !218
  %65 = getelementptr inbounds nuw %struct.H35, ptr %64, i32 0, i32 3
  %66 = getelementptr inbounds nuw %struct.HasherCommon, ptr %65, i32 0, i32 0
  %67 = getelementptr inbounds [4 x ptr], ptr %66, i64 0, i64 2
  store ptr null, ptr %67, align 8, !tbaa !48
  %68 = load ptr, ptr %5, align 8, !tbaa !218
  %69 = getelementptr inbounds nuw %struct.H35, ptr %68, i32 0, i32 3
  %70 = getelementptr inbounds nuw %struct.HasherCommon, ptr %69, i32 0, i32 0
  %71 = getelementptr inbounds [4 x ptr], ptr %70, i64 0, i64 3
  store ptr null, ptr %71, align 8, !tbaa !48
  %72 = load ptr, ptr %5, align 8, !tbaa !218
  %73 = getelementptr inbounds nuw %struct.H35, ptr %72, i32 0, i32 2
  %74 = load ptr, ptr %5, align 8, !tbaa !218
  %75 = getelementptr inbounds nuw %struct.H35, ptr %74, i32 0, i32 0
  %76 = load ptr, ptr %5, align 8, !tbaa !218
  %77 = getelementptr inbounds nuw %struct.H35, ptr %76, i32 0, i32 6
  %78 = load ptr, ptr %77, align 8, !tbaa !300
  call void @InitializeH3(ptr noundef %73, ptr noundef %75, ptr noundef %78)
  %79 = load ptr, ptr %5, align 8, !tbaa !218
  %80 = getelementptr inbounds nuw %struct.H35, ptr %79, i32 0, i32 3
  %81 = load ptr, ptr %5, align 8, !tbaa !218
  %82 = getelementptr inbounds nuw %struct.H35, ptr %81, i32 0, i32 1
  %83 = load ptr, ptr %5, align 8, !tbaa !218
  %84 = getelementptr inbounds nuw %struct.H35, ptr %83, i32 0, i32 6
  %85 = load ptr, ptr %84, align 8, !tbaa !300
  call void @InitializeHROLLING_FAST(ptr noundef %80, ptr noundef %82, ptr noundef %85)
  br label %86

86:                                               ; preds = %13, %4
  %87 = load ptr, ptr %5, align 8, !tbaa !218
  %88 = getelementptr inbounds nuw %struct.H35, ptr %87, i32 0, i32 0
  %89 = load i32, ptr %6, align 4, !tbaa !8
  %90 = load i64, ptr %7, align 8, !tbaa !75
  %91 = load ptr, ptr %8, align 8, !tbaa !76
  call void @PrepareH3(ptr noundef %88, i32 noundef %89, i64 noundef %90, ptr noundef %91)
  %92 = load ptr, ptr %5, align 8, !tbaa !218
  %93 = getelementptr inbounds nuw %struct.H35, ptr %92, i32 0, i32 1
  %94 = load i32, ptr %6, align 4, !tbaa !8
  %95 = load i64, ptr %7, align 8, !tbaa !75
  %96 = load ptr, ptr %8, align 8, !tbaa !76
  call void @PrepareHROLLING_FAST(ptr noundef %93, i32 noundef %94, i64 noundef %95, ptr noundef %96)
  ret void
}