; Function Attrs: nofree norecurse nosync nounwind uwtable
define internal fastcc void @PrepareH35(ptr noalias noundef %0, i32 noundef range(i32 0, 2) %1, i64 noundef range(i64 0, 4294967296) %2, ptr noalias noundef readonly captures(none) %3) unnamed_addr #13 {
  %5 = getelementptr inbounds nuw i8, ptr %0, i64 224
  %6 = load i32, ptr %5, align 8, !tbaa !196
  %.not = icmp eq i32 %6, 0
  br i1 %.not, label %._crit_edge, label %7

._crit_edge:                                      ; preds = %4
  %.phi.trans.insert = getelementptr i8, ptr %0, i64 8
  %.val.pre = load ptr, ptr %.phi.trans.insert, align 8, !tbaa !157
  br label %29

7:                                                ; preds = %4
  store i32 0, ptr %5, align 8, !tbaa !196
  %8 = getelementptr inbounds nuw i8, ptr %0, i64 216
  %9 = load ptr, ptr %8, align 8, !tbaa !188
  %10 = load ptr, ptr %9, align 8, !tbaa !63
  %11 = getelementptr inbounds nuw i8, ptr %0, i64 56
  store ptr %10, ptr %11, align 8, !tbaa !63
  %12 = getelementptr inbounds nuw i8, ptr %9, i64 8
  %13 = load ptr, ptr %12, align 8, !tbaa !63
  %14 = getelementptr inbounds nuw i8, ptr %0, i64 64
  store ptr %13, ptr %14, align 8, !tbaa !63
  %15 = getelementptr inbounds nuw i8, ptr %0, i64 72
  %16 = getelementptr inbounds nuw i8, ptr %9, i64 16
  tail call void @llvm.memset.p0.i64(ptr noundef nonnull align 8 dereferenceable(16) %15, i8 0, i64 16, i1 false)
  %17 = load ptr, ptr %16, align 8, !tbaa !63
  %18 = getelementptr inbounds nuw i8, ptr %0, i64 136
  store ptr %17, ptr %18, align 8, !tbaa !63
  %19 = getelementptr inbounds nuw i8, ptr %9, i64 24
  %20 = load ptr, ptr %19, align 8, !tbaa !63
  %21 = getelementptr inbounds nuw i8, ptr %0, i64 144
  store ptr %20, ptr %21, align 8, !tbaa !63
  %22 = getelementptr inbounds nuw i8, ptr %0, i64 152
  tail call void @llvm.memset.p0.i64(ptr noundef nonnull align 8 dereferenceable(16) %22, i8 0, i64 16, i1 false)
  store ptr %11, ptr %0, align 8, !tbaa !155, !alias.scope !687
  %23 = getelementptr inbounds nuw i8, ptr %0, i64 8
  store ptr %10, ptr %23, align 8, !tbaa !157, !alias.scope !687
  %24 = getelementptr inbounds nuw i8, ptr %0, i64 16
  tail call void @llvm.experimental.noalias.scope.decl(metadata !690)
  store i32 0, ptr %24, align 8, !tbaa !493, !alias.scope !690
  %25 = getelementptr inbounds nuw i8, ptr %0, i64 32
  store i64 0, ptr %25, align 8, !tbaa !494, !alias.scope !690
  %26 = getelementptr inbounds nuw i8, ptr %0, i64 44
  store i32 69069, ptr %26, align 4, !tbaa !491, !alias.scope !690
  %27 = getelementptr inbounds nuw i8, ptr %0, i64 48
  store i32 381957665, ptr %27, align 8, !tbaa !693, !alias.scope !690
  %28 = getelementptr inbounds nuw i8, ptr %0, i64 24
  store ptr %17, ptr %28, align 8, !tbaa !694, !alias.scope !690
  tail call void @llvm.memset.p0.i64(ptr noundef nonnull align 4 dereferenceable(67108864) %17, i8 -1, i64 67108864, i1 false), !tbaa !59, !noalias !690
  br label %29

29:                                               ; preds = %._crit_edge, %7
  %.val = phi ptr [ %.val.pre, %._crit_edge ], [ %10, %7 ]
  tail call void @llvm.experimental.noalias.scope.decl(metadata !695)
  %.not.i = icmp ne i32 %1, 0
  %30 = icmp samesign ult i64 %2, 2049
  %or.cond.i = select i1 %.not.i, i1 %30, i1 false
  br i1 %or.cond.i, label %.preheader.i, label %39

.preheader.i:                                     ; preds = %29
  %.not3.i = icmp eq i64 %2, 0
  br i1 %.not3.i, label %PrepareHROLLING_FAST.exit, label %.lr.ph.i

.lr.ph.i:                                         ; preds = %.preheader.i, %.lr.ph.i
  %.0142.i = phi i64 [ %38, %.lr.ph.i ], [ 0, %.preheader.i ]
  %31 = getelementptr inbounds nuw i8, ptr %3, i64 %.0142.i
  %.val.i = load i64, ptr %31, align 1, !alias.scope !695
  %32 = mul i64 %.val.i, 8922571613522624512
  %33 = lshr i64 %32, 48
  %34 = getelementptr inbounds nuw i32, ptr %.val, i64 %33
  store i32 0, ptr %34, align 4, !tbaa !59, !noalias !695
  %35 = add nuw nsw i64 %33, 8
  %36 = and i64 %35, 65535
  %37 = getelementptr inbounds nuw i32, ptr %.val, i64 %36
  store i32 0, ptr %37, align 4, !tbaa !59, !noalias !695
  %38 = add nuw nsw i64 %.0142.i, 1
  %exitcond.not.i = icmp eq i64 %38, %2
  br i1 %exitcond.not.i, label %PrepareH3.exit, label %.lr.ph.i, !llvm.loop !230

39:                                               ; preds = %29
  tail call void @llvm.memset.p0.i64(ptr noundef nonnull align 4 dereferenceable(262144) %.val, i8 0, i64 262144, i1 false), !noalias !695
  br label %PrepareH3.exit

PrepareH3.exit:                                   ; preds = %.lr.ph.i, %39
  %40 = getelementptr inbounds nuw i8, ptr %0, i64 16
  tail call void @llvm.experimental.noalias.scope.decl(metadata !698)
  tail call void @llvm.experimental.noalias.scope.decl(metadata !701)
  %41 = icmp samesign ult i64 %2, 32
  br i1 %41, label %PrepareHROLLING_FAST.exit, label %42

42:                                               ; preds = %PrepareH3.exit
  %43 = getelementptr inbounds nuw i8, ptr %0, i64 44
  %44 = load i32, ptr %43, align 4, !tbaa !491, !alias.scope !698, !noalias !701
  br label %45

45:                                               ; preds = %45, %42
  %.08.i = phi i64 [ 0, %42 ], [ %53, %45 ]
  %46 = phi i32 [ 0, %42 ], [ %52, %45 ]
  %47 = getelementptr inbounds nuw i8, ptr %3, i64 %.08.i
  %48 = load i8, ptr %47, align 1, !tbaa !70, !alias.scope !701, !noalias !698
  %49 = mul i32 %46, %44
  %50 = zext i8 %48 to i32
  %51 = add i32 %49, 1
  %52 = add i32 %51, %50
  %53 = add nuw nsw i64 %.08.i, 4
  %54 = icmp samesign ult i64 %.08.i, 28
  br i1 %54, label %45, label %.loopexit.i, !llvm.loop !492

.loopexit.i:                                      ; preds = %45
  store i32 %52, ptr %40, align 8, !tbaa !493, !alias.scope !698, !noalias !701
  br label %PrepareHROLLING_FAST.exit

PrepareHROLLING_FAST.exit:                        ; preds = %.preheader.i, %PrepareH3.exit, %.loopexit.i
  ret void
}